; Function Attrs: nounwind sspstrong uwtable
define internal i64 @cState_indent(i64 noundef %0) #0 {
  %2 = tail call ptr @rb_check_typeddata(i64 noundef %0, ptr noundef nonnull @JSON_Generator_State_type) #22
  %3 = load i64, ptr %2, align 8, !tbaa !25
  %.not = icmp eq i64 %3, 0
  br i1 %.not, label %4, label %7

4:                                                ; preds = %1
  %5 = tail call i64 @rb_utf8_str_new_static(ptr noundef nonnull @.str.79, i64 noundef 0) #22
  %6 = tail call i64 @rb_str_freeze(i64 noundef %5) #22
  br label %7

7:                                                ; preds = %1, %4
  %8 = phi i64 [ %6, %4 ], [ %3, %1 ]
  ret i64 %8
}